target datalayout = "e-m:e-p270:32:32-p271:32:32-p272:64:64-i64:64-i128:128-f80:128-n8:16:32:64-S128"
target triple = "x86_64-pc-linux-gnu"

%struct.stat = type { i64, i64, i64, i32, i32, i32, i32, i64, i64, i64, i64, %struct.timespec, %struct.timespec, %struct.timespec, [3 x i64] }
%struct.timespec = type { i64, i64 }

; Function Attrs: mustprogress nounwind uwtable
define noundef i64 @_ZN32pxrInternal_v0_24__pxrReserved__17ArchGetFileLengthEP8_IO_FILE(ptr noundef %0) #2 {
  %2 = alloca i64, align 8
  %3 = alloca ptr, align 8
  %4 = alloca %struct.stat, align 8
  store ptr %0, ptr %3, align 8
  %5 = load ptr, ptr %3, align 8
  %6 = icmp ne ptr %5, null
  br i1 %6, label %8, label %7

7:                                                ; preds = %1
  store i64 -1, ptr %2, align 8
  br label %19

8:                                                ; preds = %1
  %9 = load ptr, ptr %3, align 8
  %10 = call i32 @fileno(ptr noundef %9) #6
  %11 = call i32 @fstat(i32 noundef %10, ptr noundef %4) #6
  %12 = icmp slt i32 %11, 0
  br i1 %12, label %13, label %14

13:                                               ; preds = %8
  br label %17

14:                                               ; preds = %8
  %15 = getelementptr inbounds nuw %struct.stat, ptr %4, i32 0, i32 8
  %16 = load i64, ptr %15, align 8
  br label %17

17:                                               ; preds = %14, %13
  %18 = phi i64 [ -1, %13 ], [ %16, %14 ]
  store i64 %18, ptr %2, align 8
  br label %19

19:                                               ; preds = %17, %7
  %20 = load i64, ptr %2, align 8
  ret i64 %20
}