; Function Attrs: mustprogress nofree nounwind uwtable
define noundef i64 @_ZN32pxrInternal_v0_24__pxrReserved__17ArchGetFileLengthEP8_IO_FILE(ptr noundef %0) local_unnamed_addr #0 {
  %2 = alloca %struct.stat, align 8
  %.not = icmp eq ptr %0, null
  br i1 %.not, label %10, label %3

3:                                                ; preds = %1
  %4 = tail call i32 @fileno(ptr noundef nonnull %0) #23
  %5 = call i32 @fstat(i32 noundef %4, ptr noundef nonnull %2) #23
  %6 = icmp slt i32 %5, 0
  %7 = getelementptr inbounds nuw i8, ptr %2, i64 48
  %8 = load i64, ptr %7, align 8
  %9 = select i1 %6, i64 -1, i64 %8
  br label %10

10:                                               ; preds = %1, %3
  %.0 = phi i64 [ %9, %3 ], [ -1, %1 ]
  ret i64 %.0
}